; Function Attrs: null_pointer_is_valid sspstrong uwtable
define noundef zeroext i1 @wscbor_require_array(ptr noundef readonly captures(none) %0) local_unnamed_addr #0 {
  %2 = getelementptr inbounds nuw i8, ptr %0, i64 40
  %3 = load i32, ptr %2, align 8
  %4 = icmp eq i32 %3, 4
  br i1 %4, label %wscbor_require_major_type.exit, label %5

5:                                                ; preds = %1
  %6 = getelementptr inbounds nuw i8, ptr %0, i64 24
  %7 = load ptr, ptr %6, align 8
  %8 = load ptr, ptr %0, align 8
  %9 = load ptr, ptr %8, align 8
  %10 = tail call ptr (ptr, ptr, ptr, ...) @wscbor_error_new(ptr noundef %9, ptr noundef nonnull @ei_cbor_wrong_type, ptr noundef nonnull @.str.10, i32 noundef %3, i32 noundef 4)
  tail call void @wmem_list_append(ptr noundef %7, ptr noundef %10)
  br label %wscbor_require_major_type.exit

wscbor_require_major_type.exit:                   ; preds = %1, %5
  ret i1 %4
}